; Function Attrs: mustprogress uwtable
define void @aiSetImportPropertyString(ptr noundef %p, ptr noundef %szName, ptr noundef %st) local_unnamed_addr #3 personality ptr @__gxx_personality_v0 {
entry:
  %ref.tmp = alloca %"class.std::__cxx11::basic_string", align 8
  %ref.tmp1 = alloca %"class.std::allocator.6", align 1
  %tobool.not = icmp eq ptr %st, null
  br i1 %tobool.not, label %try.cont, label %if.end

if.end:                                           ; preds = %entry
  %data.i = getelementptr inbounds i8, ptr %st, i64 4
  call void @_ZNSaIcEC1Ev(ptr noundef nonnull align 1 dereferenceable(1) %ref.tmp1) #44
  %call.i2 = invoke noundef ptr @_ZNSt7__cxx1112basic_stringIcSt11char_traitsIcESaIcEE13_M_local_dataEv(ptr noundef nonnull align 8 dereferenceable(32) %ref.tmp)
          to label %call.i.noexc unwind label %lpad2

call.i.noexc:                                     ; preds = %if.end
  invoke void @_ZNSt7__cxx1112basic_stringIcSt11char_traitsIcESaIcEE12_Alloc_hiderC1EPcRKS3_(ptr noundef nonnull align 8 dereferenceable(8) %ref.tmp, ptr noundef %call.i2, ptr noundef nonnull align 1 dereferenceable(1) %ref.tmp1)
          to label %.noexc unwind label %lpad2

.noexc:                                           ; preds = %call.i.noexc
  %call.i.i = call noundef i64 @strlen(ptr noundef nonnull dereferenceable(1) %data.i) #44
  %add.ptr.i = getelementptr inbounds i8, ptr %data.i, i64 %call.i.i
  invoke void @_ZNSt7__cxx1112basic_stringIcSt11char_traitsIcESaIcEE12_M_constructIPKcEEvT_S8_St20forward_iterator_tag(ptr noundef nonnull align 8 dereferenceable(32) %ref.tmp, ptr noundef nonnull %data.i, ptr noundef nonnull %add.ptr.i)
          to label %invoke.cont3 unwind label %lpad.i

lpad.i:                                           ; preds = %.noexc
  %0 = landingpad { ptr, i32 }
          catch ptr null
  call void @_ZNSaIcED2Ev(ptr noundef nonnull align 1 dereferenceable(1) %ref.tmp) #44
  br label %ehcleanup

invoke.cont3:                                     ; preds = %.noexc
  %strings = getelementptr inbounds i8, ptr %p, i64 96
  %call6 = invoke noundef zeroext i1 @_Z18SetGenericPropertyINSt7__cxx1112basic_stringIcSt11char_traitsIcESaIcEEEEbRSt3mapIjT_St4lessIjESaISt4pairIKjS7_EEEPKcRKS7_(ptr noundef nonnull align 8 dereferenceable(48) %strings, ptr noundef %szName, ptr noundef nonnull align 8 dereferenceable(32) %ref.tmp)
          to label %invoke.cont5 unwind label %lpad4

invoke.cont5:                                     ; preds = %invoke.cont3
  call void @_ZNSt7__cxx1112basic_stringIcSt11char_traitsIcESaIcEED1Ev(ptr noundef nonnull align 8 dereferenceable(32) %ref.tmp) #44
  call void @_ZNSaIcED1Ev(ptr noundef nonnull align 1 dereferenceable(1) %ref.tmp1) #44
  br label %try.cont

lpad2:                                            ; preds = %call.i.noexc, %if.end
  %1 = landingpad { ptr, i32 }
          catch ptr null
  br label %ehcleanup

lpad4:                                            ; preds = %invoke.cont3
  %2 = landingpad { ptr, i32 }
          catch ptr null
  call void @_ZNSt7__cxx1112basic_stringIcSt11char_traitsIcESaIcEED1Ev(ptr noundef nonnull align 8 dereferenceable(32) %ref.tmp) #44
  br label %ehcleanup

ehcleanup:                                        ; preds = %lpad2, %lpad.i, %lpad4
  %.pn = phi { ptr, i32 } [ %2, %lpad4 ], [ %1, %lpad2 ], [ %0, %lpad.i ]
  %exn.slot.0 = extractvalue { ptr, i32 } %.pn, 0
  call void @_ZNSaIcED1Ev(ptr noundef nonnull align 1 dereferenceable(1) %ref.tmp1) #44
  %3 = call ptr @__cxa_begin_catch(ptr %exn.slot.0) #44
  call void @__cxa_end_catch()
  br label %try.cont

try.cont:                                         ; preds = %entry, %ehcleanup, %invoke.cont5
  ret void
}